target datalayout = "e-m:e-p270:32:32-p271:32:32-p272:64:64-i64:64-i128:128-f80:128-n8:16:32:64-S128"
target triple = "x86_64-pc-linux-gnu"

%struct.H5S_t = type { %struct.H5S_extent_t, %struct.H5S_select_t }
%struct.H5S_extent_t = type { %struct.H5O_shared_t, i32, i32, i64, i32, ptr, ptr }
%struct.H5O_shared_t = type { i32, ptr, i32, %union.anon }
%union.anon = type { %struct.H5O_mesg_loc_t }
%struct.H5O_mesg_loc_t = type { i32, i64 }
%struct.H5S_select_t = type { ptr, i8, [32 x i64], i64, %union.anon.0 }
%union.anon.0 = type { ptr }

@H5S_init_g = global i8 0, align 1
@H5_H5S_t_reg_free_list = global { i8, [3 x i8], i32, i32, [4 x i8], ptr, i64, ptr } { i8 0, [3 x i8] zeroinitializer, i32 0, i32 0, [4 x i8] zeroinitializer, ptr @.str.1, i64 368, ptr null }, align 8
@H5_libterm_g = external global i8, align 1
@.str.3 = private unnamed_addr constant [97 x i8] c"generated/home/dtcxzyw/WorkSpace/Projects/compilers/llvm-opt-benchmark/bench/hdf5/hdf5/src/H5S.c\00", align 1
@H5E_FUNC_g = external global i64, align 8
@H5E_CANTINIT_g = external global i64, align 8
@.str.4 = private unnamed_addr constant [32 x i8] c"interface initialization failed\00", align 1
@H5E_DATASPACE_g = external global i64, align 8
@__func__.H5S_create = private unnamed_addr constant [11 x i8] c"H5S_create\00", align 1
@H5E_RESOURCE_g = external global i64, align 8
@H5E_NOSPACE_g = external global i64, align 8
@.str.7 = private unnamed_addr constant [25 x i8] c"memory allocation failed\00", align 1
@H5E_CANTSET_g = external global i64, align 8
@.str.8 = private unnamed_addr constant [28 x i8] c"unable to set all selection\00", align 1
@H5E_CANTRESET_g = external global i64, align 8
@.str.9 = private unnamed_addr constant [38 x i8] c"unable to reset shared component info\00", align 1
@H5E_CANTRELEASE_g = external global i64, align 8
@.str.10 = private unnamed_addr constant [28 x i8] c"unable to release dataspace\00", align 1

; Function Attrs: nounwind uwtable
define ptr @H5S_create(i32 noundef %0) #0 {
  %2 = alloca i32, align 4
  %3 = alloca ptr, align 8
  %4 = alloca ptr, align 8
  %5 = alloca i8, align 1
  store i32 %0, ptr %2, align 4, !tbaa !3
  call void @llvm.lifetime.start.p0(i64 8, ptr %3) #7
  store ptr null, ptr %3, align 8, !tbaa !13
  call void @llvm.lifetime.start.p0(i64 8, ptr %4) #7
  store ptr null, ptr %4, align 8, !tbaa !13
  call void @llvm.lifetime.start.p0(i64 1, ptr %5) #7
  store i8 0, ptr %5, align 1, !tbaa !7
  %6 = load i8, ptr @H5S_init_g, align 1, !tbaa !7, !range !9, !noundef !10
  %7 = trunc i8 %6 to i1
  br i1 %7, label %12, label %8

8:                                                ; preds = %1
  %9 = load i8, ptr @H5_libterm_g, align 1, !tbaa !7, !range !9, !noundef !10
  %10 = trunc i8 %9 to i1
  %11 = xor i1 %10, true
  br label %12

12:                                               ; preds = %8, %1
  %13 = phi i1 [ false, %1 ], [ %11, %8 ]
  %14 = xor i1 %13, true
  %15 = xor i1 %14, true
  %16 = zext i1 %15 to i32
  %17 = sext i32 %16 to i64
  %18 = call i64 @llvm.expect.i64(i64 %17, i64 0)
  %19 = icmp ne i64 %18, 0
  br i1 %19, label %20, label %43

20:                                               ; preds = %12
  store i8 1, ptr @H5S_init_g, align 1, !tbaa !7
  %21 = call i32 @H5S__init_package()
  %22 = icmp slt i32 %21, 0
  br i1 %22, label %23, label %42

23:                                               ; preds = %20
  store i8 0, ptr @H5S_init_g, align 1, !tbaa !7
  br label %24

24:                                               ; preds = %23
  br label %25

25:                                               ; preds = %24
  br label %26

26:                                               ; preds = %25
  %27 = load i64, ptr @H5E_FUNC_g, align 8, !tbaa !11
  %28 = load i64, ptr @H5E_CANTINIT_g, align 8, !tbaa !11
  %29 = call i32 (ptr, ptr, i32, i64, i64, ptr, ...) @H5E_printf_stack(ptr noundef @.str.3, ptr noundef @__func__.H5S_create, i32 noundef 299, i64 noundef %27, i64 noundef %28, ptr noundef @.str.4)
  br label %30

30:                                               ; preds = %26
  br label %31

31:                                               ; preds = %30
  store i8 1, ptr %5, align 1, !tbaa !7
  %32 = load i8, ptr %5, align 1, !tbaa !7, !range !9, !noundef !10
  %33 = trunc i8 %32 to i1
  %34 = zext i1 %33 to i8
  store i8 %34, ptr %5, align 1, !tbaa !7
  br label %35

35:                                               ; preds = %31
  br label %36

36:                                               ; preds = %35
  br label %37

37:                                               ; preds = %36
  store ptr null, ptr %4, align 8, !tbaa !13
  br label %169

38:                                               ; No predecessors!
  br label %39

39:                                               ; preds = %38
  br label %40

40:                                               ; preds = %39
  br label %41

41:                                               ; preds = %40
  br label %42

42:                                               ; preds = %41, %20
  br label %43

43:                                               ; preds = %42, %12
  %44 = load i8, ptr @H5S_init_g, align 1, !tbaa !7, !range !9, !noundef !10
  %45 = trunc i8 %44 to i1
  br i1 %45, label %50, label %46

46:                                               ; preds = %43
  %47 = load i8, ptr @H5_libterm_g, align 1, !tbaa !7, !range !9, !noundef !10
  %48 = trunc i8 %47 to i1
  %49 = xor i1 %48, true
  br label %50

50:                                               ; preds = %46, %43
  %51 = phi i1 [ true, %43 ], [ %49, %46 ]
  %52 = xor i1 %51, true
  %53 = xor i1 %52, true
  %54 = zext i1 %53 to i32
  %55 = sext i32 %54 to i64
  %56 = call i64 @llvm.expect.i64(i64 %55, i64 1)
  %57 = icmp ne i64 %56, 0
  br i1 %57, label %58, label %197

58:                                               ; preds = %50
  %59 = call noalias ptr @H5FL_reg_calloc(ptr noundef @H5_H5S_t_reg_free_list)
  store ptr %59, ptr %3, align 8, !tbaa !13
  %60 = icmp eq ptr null, %59
  br i1 %60, label %61, label %80

61:                                               ; preds = %58
  br label %62

62:                                               ; preds = %61
  br label %63

63:                                               ; preds = %62
  br label %64

64:                                               ; preds = %63
  %65 = load i64, ptr @H5E_RESOURCE_g, align 8, !tbaa !11
  %66 = load i64, ptr @H5E_NOSPACE_g, align 8, !tbaa !11
  %67 = call i32 (ptr, ptr, i32, i64, i64, ptr, ...) @H5E_printf_stack(ptr noundef @.str.3, ptr noundef @__func__.H5S_create, i32 noundef 303, i64 noundef %65, i64 noundef %66, ptr noundef @.str.7)
  br label %68

68:                                               ; preds = %64
  br label %69

69:                                               ; preds = %68
  store i8 1, ptr %5, align 1, !tbaa !7
  %70 = load i8, ptr %5, align 1, !tbaa !7, !range !9, !noundef !10
  %71 = trunc i8 %70 to i1
  %72 = zext i1 %71 to i8
  store i8 %72, ptr %5, align 1, !tbaa !7
  br label %73

73:                                               ; preds = %69
  br label %74

74:                                               ; preds = %73
  br label %75

75:                                               ; preds = %74
  store ptr null, ptr %4, align 8, !tbaa !13
  br label %169

76:                                               ; No predecessors!
  br label %77

77:                                               ; preds = %76
  br label %78

78:                                               ; preds = %77
  br label %79

79:                                               ; preds = %78
  br label %80

80:                                               ; preds = %79, %58
  %81 = load i32, ptr %2, align 4, !tbaa !3
  %82 = load ptr, ptr %3, align 8, !tbaa !13
  %83 = getelementptr inbounds nuw %struct.H5S_t, ptr %82, i32 0, i32 0
  %84 = getelementptr inbounds nuw %struct.H5S_extent_t, ptr %83, i32 0, i32 1
  store i32 %81, ptr %84, align 8, !tbaa !16
  %85 = load i32, ptr %2, align 4, !tbaa !3
  %86 = icmp eq i32 %85, 2
  br i1 %86, label %87, label %91

87:                                               ; preds = %80
  %88 = load ptr, ptr %3, align 8, !tbaa !13
  %89 = getelementptr inbounds nuw %struct.H5S_t, ptr %88, i32 0, i32 0
  %90 = getelementptr inbounds nuw %struct.H5S_extent_t, ptr %89, i32 0, i32 2
  store i32 2, ptr %90, align 4, !tbaa !23
  br label %95

91:                                               ; preds = %80
  %92 = load ptr, ptr %3, align 8, !tbaa !13
  %93 = getelementptr inbounds nuw %struct.H5S_t, ptr %92, i32 0, i32 0
  %94 = getelementptr inbounds nuw %struct.H5S_extent_t, ptr %93, i32 0, i32 2
  store i32 1, ptr %94, align 4, !tbaa !23
  br label %95

95:                                               ; preds = %91, %87
  %96 = load ptr, ptr %3, align 8, !tbaa !13
  %97 = getelementptr inbounds nuw %struct.H5S_t, ptr %96, i32 0, i32 0
  %98 = getelementptr inbounds nuw %struct.H5S_extent_t, ptr %97, i32 0, i32 4
  store i32 0, ptr %98, align 8, !tbaa !24
  %99 = load ptr, ptr %3, align 8, !tbaa !13
  %100 = getelementptr inbounds nuw %struct.H5S_t, ptr %99, i32 0, i32 0
  %101 = getelementptr inbounds nuw %struct.H5S_extent_t, ptr %100, i32 0, i32 6
  store ptr null, ptr %101, align 8, !tbaa !25
  %102 = load ptr, ptr %3, align 8, !tbaa !13
  %103 = getelementptr inbounds nuw %struct.H5S_t, ptr %102, i32 0, i32 0
  %104 = getelementptr inbounds nuw %struct.H5S_extent_t, ptr %103, i32 0, i32 5
  store ptr null, ptr %104, align 8, !tbaa !26
  %105 = load i32, ptr %2, align 4, !tbaa !3
  switch i32 %105, label %115 [
    i32 0, label %106
    i32 1, label %110
    i32 2, label %110
    i32 -1, label %114
  ]

106:                                              ; preds = %95
  %107 = load ptr, ptr %3, align 8, !tbaa !13
  %108 = getelementptr inbounds nuw %struct.H5S_t, ptr %107, i32 0, i32 0
  %109 = getelementptr inbounds nuw %struct.H5S_extent_t, ptr %108, i32 0, i32 3
  store i64 1, ptr %109, align 8, !tbaa !27
  br label %116

110:                                              ; preds = %95, %95
  %111 = load ptr, ptr %3, align 8, !tbaa !13
  %112 = getelementptr inbounds nuw %struct.H5S_t, ptr %111, i32 0, i32 0
  %113 = getelementptr inbounds nuw %struct.H5S_extent_t, ptr %112, i32 0, i32 3
  store i64 0, ptr %113, align 8, !tbaa !27
  br label %116

114:                                              ; preds = %95
  br label %115

115:                                              ; preds = %95, %114
  br label %116

116:                                              ; preds = %115, %110, %106
  %117 = load ptr, ptr %3, align 8, !tbaa !13
  %118 = call i32 @H5S_select_all(ptr noundef %117, i1 noundef zeroext false)
  %119 = icmp slt i32 %118, 0
  br i1 %119, label %120, label %139

120:                                              ; preds = %116
  br label %121

121:                                              ; preds = %120
  br label %122

122:                                              ; preds = %121
  br label %123

123:                                              ; preds = %122
  %124 = load i64, ptr @H5E_DATASPACE_g, align 8, !tbaa !11
  %125 = load i64, ptr @H5E_CANTSET_g, align 8, !tbaa !11
  %126 = call i32 (ptr, ptr, i32, i64, i64, ptr, ...) @H5E_printf_stack(ptr noundef @.str.3, ptr noundef @__func__.H5S_create, i32 noundef 332, i64 noundef %124, i64 noundef %125, ptr noundef @.str.8)
  br label %127

127:                                              ; preds = %123
  br label %128

128:                                              ; preds = %127
  store i8 1, ptr %5, align 1, !tbaa !7
  %129 = load i8, ptr %5, align 1, !tbaa !7, !range !9, !noundef !10
  %130 = trunc i8 %129 to i1
  %131 = zext i1 %130 to i8
  store i8 %131, ptr %5, align 1, !tbaa !7
  br label %132

132:                                              ; preds = %128
  br label %133

133:                                              ; preds = %132
  br label %134

134:                                              ; preds = %133
  store ptr null, ptr %4, align 8, !tbaa !13
  br label %169

135:                                              ; No predecessors!
  br label %136

136:                                              ; preds = %135
  br label %137

137:                                              ; preds = %136
  br label %138

138:                                              ; preds = %137
  br label %139

139:                                              ; preds = %138, %116
  %140 = load ptr, ptr %3, align 8, !tbaa !13
  %141 = getelementptr inbounds nuw %struct.H5S_t, ptr %140, i32 0, i32 1
  %142 = getelementptr inbounds nuw %struct.H5S_select_t, ptr %141, i32 0, i32 4
  store ptr null, ptr %142, align 8, !tbaa !28
  %143 = load ptr, ptr %3, align 8, !tbaa !13
  %144 = getelementptr inbounds nuw %struct.H5S_t, ptr %143, i32 0, i32 0
  %145 = getelementptr inbounds nuw %struct.H5S_extent_t, ptr %144, i32 0, i32 0
  %146 = call i32 @H5O_msg_reset_share(i32 noundef 1, ptr noundef %145)
  %147 = icmp slt i32 %146, 0
  br i1 %147, label %148, label %167

148:                                              ; preds = %139
  br label %149

149:                                              ; preds = %148
  br label %150

150:                                              ; preds = %149
  br label %151

151:                                              ; preds = %150
  %152 = load i64, ptr @H5E_DATASPACE_g, align 8, !tbaa !11
  %153 = load i64, ptr @H5E_CANTRESET_g, align 8, !tbaa !11
  %154 = call i32 (ptr, ptr, i32, i64, i64, ptr, ...) @H5E_printf_stack(ptr noundef @.str.3, ptr noundef @__func__.H5S_create, i32 noundef 339, i64 noundef %152, i64 noundef %153, ptr noundef @.str.9)
  br label %155

155:                                              ; preds = %151
  br label %156

156:                                              ; preds = %155
  store i8 1, ptr %5, align 1, !tbaa !7
  %157 = load i8, ptr %5, align 1, !tbaa !7, !range !9, !noundef !10
  %158 = trunc i8 %157 to i1
  %159 = zext i1 %158 to i8
  store i8 %159, ptr %5, align 1, !tbaa !7
  br label %160

160:                                              ; preds = %156
  br label %161

161:                                              ; preds = %160
  br label %162

162:                                              ; preds = %161
  store ptr null, ptr %4, align 8, !tbaa !13
  br label %169

163:                                              ; No predecessors!
  br label %164

164:                                              ; preds = %163
  br label %165

165:                                              ; preds = %164
  br label %166

166:                                              ; preds = %165
  br label %167

167:                                              ; preds = %166, %139
  %168 = load ptr, ptr %3, align 8, !tbaa !13
  store ptr %168, ptr %4, align 8, !tbaa !13
  br label %169

169:                                              ; preds = %167, %162, %134, %75, %37
  %170 = load ptr, ptr %4, align 8, !tbaa !13
  %171 = icmp eq ptr %170, null
  br i1 %171, label %172, label %196

172:                                              ; preds = %169
  %173 = load ptr, ptr %3, align 8, !tbaa !13
  %174 = icmp ne ptr %173, null
  br i1 %174, label %175, label %195

175:                                              ; preds = %172
  %176 = load ptr, ptr %3, align 8, !tbaa !13
  %177 = call i32 @H5S_close(ptr noundef %176)
  %178 = icmp slt i32 %177, 0
  br i1 %178, label %179, label %195

179:                                              ; preds = %175
  br label %180

180:                                              ; preds = %179
  br label %181

181:                                              ; preds = %180
  br label %182

182:                                              ; preds = %181
  %183 = load i64, ptr @H5E_DATASPACE_g, align 8, !tbaa !11
  %184 = load i64, ptr @H5E_CANTRELEASE_g, align 8, !tbaa !11
  %185 = call i32 (ptr, ptr, i32, i64, i64, ptr, ...) @H5E_printf_stack(ptr noundef @.str.3, ptr noundef @__func__.H5S_create, i32 noundef 347, i64 noundef %183, i64 noundef %184, ptr noundef @.str.10)
  br label %186

186:                                              ; preds = %182
  br label %187

187:                                              ; preds = %186
  store i8 1, ptr %5, align 1, !tbaa !7
  %188 = load i8, ptr %5, align 1, !tbaa !7, !range !9, !noundef !10
  %189 = trunc i8 %188 to i1
  %190 = zext i1 %189 to i8
  store i8 %190, ptr %5, align 1, !tbaa !7
  br label %191

191:                                              ; preds = %187
  br label %192

192:                                              ; preds = %191
  store ptr null, ptr %4, align 8, !tbaa !13
  br label %193

193:                                              ; preds = %192
  br label %194

194:                                              ; preds = %193
  br label %195

195:                                              ; preds = %194, %175, %172
  br label %196

196:                                              ; preds = %195, %169
  br label %197

197:                                              ; preds = %196, %50
  %198 = load ptr, ptr %4, align 8, !tbaa !13
  call void @llvm.lifetime.end.p0(i64 1, ptr %5) #7
  call void @llvm.lifetime.end.p0(i64 8, ptr %4) #7
  call void @llvm.lifetime.end.p0(i64 8, ptr %3) #7
  ret ptr %198
}