; Function Attrs: nounwind uwtable
define ptr @H5S_create(i32 noundef %0) local_unnamed_addr #0 {
  %2 = load i8, ptr @H5S_init_g, align 1, !tbaa !3, !range !7, !noundef !8
  %3 = trunc nuw i8 %2 to i1
  %4 = load i8, ptr @H5_libterm_g, align 1, !range !7
  %5 = trunc nuw i8 %4 to i1
  %6 = select i1 %3, i1 true, i1 %5
  br i1 %6, label %14, label %7, !prof !9

7:                                                ; preds = %1
  store i8 1, ptr @H5S_init_g, align 1, !tbaa !3
  %8 = tail call i32 @H5S__init_package()
  %9 = icmp slt i32 %8, 0
  br i1 %9, label %10, label %._crit_edge

._crit_edge:                                      ; preds = %7
  %.pre = load i8, ptr @H5S_init_g, align 1, !tbaa !3, !range !7
  %.pre31 = load i8, ptr @H5_libterm_g, align 1, !range !7
  %.pre32 = trunc nuw i8 %.pre to i1
  %.pre33 = trunc nuw i8 %.pre31 to i1
  br label %14

10:                                               ; preds = %7
  store i8 0, ptr @H5S_init_g, align 1, !tbaa !3
  %11 = load i64, ptr @H5E_FUNC_g, align 8, !tbaa !10
  %12 = load i64, ptr @H5E_CANTINIT_g, align 8, !tbaa !10
  %13 = tail call i32 (ptr, ptr, i32, i64, i64, ptr, ...) @H5E_printf_stack(ptr noundef nonnull @.str.3, ptr noundef nonnull @__func__.H5S_create, i32 noundef 299, i64 noundef %11, i64 noundef %12, ptr noundef nonnull @.str.4) #10
  br label %.thread27

14:                                               ; preds = %._crit_edge, %1
  %.pre-phi34 = phi i1 [ %.pre33, %._crit_edge ], [ %5, %1 ]
  %.pre-phi = phi i1 [ %.pre32, %._crit_edge ], [ %3, %1 ]
  %15 = xor i1 %.pre-phi34, true
  %16 = select i1 %.pre-phi, i1 true, i1 %15
  br i1 %16, label %17, label %.thread27, !prof !9

17:                                               ; preds = %14
  %18 = tail call noalias ptr @H5FL_reg_calloc(ptr noundef nonnull @H5_H5S_t_reg_free_list) #10
  %19 = icmp eq ptr %18, null
  br i1 %19, label %20, label %24

20:                                               ; preds = %17
  %21 = load i64, ptr @H5E_RESOURCE_g, align 8, !tbaa !10
  %22 = load i64, ptr @H5E_NOSPACE_g, align 8, !tbaa !10
  %23 = tail call i32 (ptr, ptr, i32, i64, i64, ptr, ...) @H5E_printf_stack(ptr noundef nonnull @.str.3, ptr noundef nonnull @__func__.H5S_create, i32 noundef 303, i64 noundef %21, i64 noundef %22, ptr noundef nonnull @.str.7) #10
  br label %.thread27

24:                                               ; preds = %17
  %25 = getelementptr inbounds nuw i8, ptr %18, i64 40
  store i32 %0, ptr %25, align 8, !tbaa !13
  %26 = icmp eq i32 %0, 2
  %27 = getelementptr inbounds nuw i8, ptr %18, i64 44
  %28 = getelementptr inbounds nuw i8, ptr %18, i64 56
  %29 = getelementptr inbounds nuw i8, ptr %18, i64 64
  br i1 %26, label %.thread, label %30

.thread:                                          ; preds = %24
  store i32 2, ptr %27, align 4, !tbaa !22
  store i32 0, ptr %28, align 8, !tbaa !23
  tail call void @llvm.memset.p0.i64(ptr noundef nonnull align 8 dereferenceable(16) %29, i8 0, i64 16, i1 false)
  br label %31

30:                                               ; preds = %24
  store i32 1, ptr %27, align 4, !tbaa !22
  store i32 0, ptr %28, align 8, !tbaa !23
  tail call void @llvm.memset.p0.i64(ptr noundef nonnull align 8 dereferenceable(16) %29, i8 0, i64 16, i1 false)
  switch i32 %0, label %33 [
    i32 0, label %.sink.split
    i32 1, label %31
  ]

31:                                               ; preds = %.thread, %30
  br label %.sink.split

.sink.split:                                      ; preds = %30, %31
  %.sink = phi i64 [ 0, %31 ], [ 1, %30 ]
  %32 = getelementptr inbounds nuw i8, ptr %18, i64 48
  store i64 %.sink, ptr %32, align 8, !tbaa !24
  br label %33

33:                                               ; preds = %.sink.split, %30
  %34 = tail call i32 @H5S_select_all(ptr noundef nonnull %18, i1 noundef zeroext false) #10
  %35 = icmp slt i32 %34, 0
  br i1 %35, label %36, label %40

36:                                               ; preds = %33
  %37 = load i64, ptr @H5E_DATASPACE_g, align 8, !tbaa !10
  %38 = load i64, ptr @H5E_CANTSET_g, align 8, !tbaa !10
  %39 = tail call i32 (ptr, ptr, i32, i64, i64, ptr, ...) @H5E_printf_stack(ptr noundef nonnull @.str.3, ptr noundef nonnull @__func__.H5S_create, i32 noundef 332, i64 noundef %37, i64 noundef %38, ptr noundef nonnull @.str.8) #10
  br label %48

40:                                               ; preds = %33
  %41 = getelementptr inbounds nuw i8, ptr %18, i64 360
  store ptr null, ptr %41, align 8, !tbaa !25
  %42 = tail call i32 @H5O_msg_reset_share(i32 noundef 1, ptr noundef nonnull %18) #10
  %43 = icmp slt i32 %42, 0
  br i1 %43, label %44, label %.thread27

44:                                               ; preds = %40
  %45 = load i64, ptr @H5E_DATASPACE_g, align 8, !tbaa !10
  %46 = load i64, ptr @H5E_CANTRESET_g, align 8, !tbaa !10
  %47 = tail call i32 (ptr, ptr, i32, i64, i64, ptr, ...) @H5E_printf_stack(ptr noundef nonnull @.str.3, ptr noundef nonnull @__func__.H5S_create, i32 noundef 339, i64 noundef %45, i64 noundef %46, ptr noundef nonnull @.str.9) #10
  br label %48

48:                                               ; preds = %36, %44
  %49 = tail call i32 @H5S_close(ptr noundef nonnull %18)
  %50 = icmp slt i32 %49, 0
  br i1 %50, label %51, label %.thread27

51:                                               ; preds = %48
  %52 = load i64, ptr @H5E_DATASPACE_g, align 8, !tbaa !10
  %53 = load i64, ptr @H5E_CANTRELEASE_g, align 8, !tbaa !10
  %54 = tail call i32 (ptr, ptr, i32, i64, i64, ptr, ...) @H5E_printf_stack(ptr noundef nonnull @.str.3, ptr noundef nonnull @__func__.H5S_create, i32 noundef 347, i64 noundef %52, i64 noundef %53, ptr noundef nonnull @.str.10) #10
  br label %.thread27

.thread27:                                        ; preds = %20, %10, %40, %51, %48, %14
  %.1 = phi ptr [ null, %51 ], [ null, %48 ], [ null, %14 ], [ %18, %40 ], [ null, %20 ], [ null, %10 ]
  ret ptr %.1
}